target datalayout = "e-m:e-p270:32:32-p271:32:32-p272:64:64-i64:64-i128:128-f80:128-n8:16:32:64-S128"
target triple = "x86_64-pc-linux-gnu"

@.str.1 = private unnamed_addr constant [101 x i8] c"generated/home/dtcxzyw/WorkSpace/Projects/compilers/llvm-opt-benchmark/bench/hdf5/hdf5/src/H5Plapl.c\00", align 1
@H5E_PLIST_g = external global i64, align 8
@H5E_CANTRELEASE_g = external global i64, align 8
@.str.31 = private unnamed_addr constant [49 x i8] c"unable to close ID for file access property list\00", align 1
@__func__.H5P__lacc_elink_fapl_close = private unnamed_addr constant [27 x i8] c"H5P__lacc_elink_fapl_close\00", align 1

; Function Attrs: nounwind uwtable
define internal i32 @H5P__lacc_elink_fapl_close(ptr noundef %0, i64 noundef %1, ptr noundef %2) #0 {
  %4 = alloca ptr, align 8
  %5 = alloca i64, align 8
  %6 = alloca ptr, align 8
  %7 = alloca i64, align 8
  %8 = alloca i32, align 4
  %9 = alloca i8, align 1
  store ptr %0, ptr %4, align 8
  store i64 %1, ptr %5, align 8
  store ptr %2, ptr %6, align 8
  store i32 0, ptr %8, align 4
  store i8 0, ptr %9, align 1
  %10 = load ptr, ptr %6, align 8
  %11 = load i64, ptr %10, align 8
  store i64 %11, ptr %7, align 8
  %12 = load i64, ptr %7, align 8
  %13 = icmp sgt i64 %12, 0
  br i1 %13, label %14, label %33

14:                                               ; preds = %3
  %15 = load i64, ptr %7, align 8
  %16 = call i32 @H5I_dec_ref(i64 noundef %15)
  %17 = icmp slt i32 %16, 0
  br i1 %17, label %18, label %33

18:                                               ; preds = %14
  br label %19

19:                                               ; preds = %18
  br label %20

20:                                               ; preds = %19
  br label %21

21:                                               ; preds = %20
  %22 = load i64, ptr @H5E_PLIST_g, align 8
  %23 = load i64, ptr @H5E_CANTRELEASE_g, align 8
  %24 = call i32 (ptr, ptr, i32, i64, i64, ptr, ...) @H5E_printf_stack(ptr noundef @.str.1, ptr noundef @__func__.H5P__lacc_elink_fapl_close, i32 noundef 578, i64 noundef %22, i64 noundef %23, ptr noundef @.str.31)
  br label %25

25:                                               ; preds = %21
  store i8 1, ptr %9, align 1
  %26 = load i8, ptr %9, align 1
  %27 = trunc i8 %26 to i1
  %28 = zext i1 %27 to i8
  store i8 %28, ptr %9, align 1
  br label %29

29:                                               ; preds = %25
  br label %30

30:                                               ; preds = %29
  store i32 -1, ptr %8, align 4
  br label %34

31:                                               ; No predecessors!
  br label %32

32:                                               ; preds = %31
  br label %33

33:                                               ; preds = %32, %14, %3
  br label %34

34:                                               ; preds = %33, %30
  %35 = load i32, ptr %8, align 4
  ret i32 %35
}