; Function Attrs: nounwind uwtable
define internal range(i32 -1, 1) i32 @H5P__lacc_elink_fapl_close(ptr readnone captures(none) %0, i64 %1, ptr noundef readonly captures(none) %2) #0 {
  %4 = load i64, ptr %2, align 8
  %5 = icmp sgt i64 %4, 0
  br i1 %5, label %6, label %13

6:                                                ; preds = %3
  %7 = tail call i32 @H5I_dec_ref(i64 noundef %4) #8
  %8 = icmp slt i32 %7, 0
  br i1 %8, label %9, label %13

9:                                                ; preds = %6
  %10 = load i64, ptr @H5E_PLIST_g, align 8
  %11 = load i64, ptr @H5E_CANTRELEASE_g, align 8
  %12 = tail call i32 (ptr, ptr, i32, i64, i64, ptr, ...) @H5E_printf_stack(ptr noundef nonnull @.str.1, ptr noundef nonnull @__func__.H5P__lacc_elink_fapl_close, i32 noundef 578, i64 noundef %10, i64 noundef %11, ptr noundef nonnull @.str.31) #8
  br label %13

13:                                               ; preds = %3, %6, %9
  %.0 = phi i32 [ -1, %9 ], [ 0, %6 ], [ 0, %3 ]
  ret i32 %.0
}